target datalayout = "e-m:e-p270:32:32-p271:32:32-p272:64:64-i64:64-i128:128-f80:128-n8:16:32:64-S128"
target triple = "x86_64-pc-linux-gnu"

%struct.ossl_qtx_st = type { ptr, ptr, %struct.ossl_qrl_enc_level_set_st, ptr, ptr, ptr, i64, %struct.ossl_list_st_txe, %struct.ossl_list_st_txe, i64, i64, ptr, i64, i64, i64, ptr, ptr, ptr, ptr, ptr, ptr }
%struct.ossl_qrl_enc_level_set_st = type { [4 x %struct.ossl_qrl_enc_level_st] }
%struct.ossl_qrl_enc_level_st = type { %struct.quic_hdr_protector_st, ptr, [2 x ptr], ptr, ptr, i64, i64, i32, i32, i8, i8, [2 x [16 x i8]], [64 x i8] }
%struct.quic_hdr_protector_st = type { ptr, ptr, ptr, ptr, i32 }
%struct.ossl_list_st_txe = type { ptr, ptr, i64 }
%struct.txe_st = type { %struct.anon, i64, i64, %union.bio_addr_st, %union.bio_addr_st }
%struct.anon = type { ptr, ptr }
%union.bio_addr_st = type { %struct.sockaddr_in6, [84 x i8] }
%struct.sockaddr_in6 = type { i16, i16, i32, %struct.in6_addr, i32 }
%struct.in6_addr = type { %union.anon }
%union.anon = type { [4 x i32] }

@.str = private unnamed_addr constant [37 x i8] c"../openssl/ssl/quic/quic_record_tx.c\00", align 1

; Function Attrs: inlinehint nounwind uwtable
define internal ptr @ossl_list_txe_next(ptr noundef %0) #3 {
  %2 = alloca ptr, align 8
  store ptr %0, ptr %2, align 8, !tbaa !39
  %3 = load ptr, ptr %2, align 8, !tbaa !39
  %4 = getelementptr inbounds nuw %struct.txe_st, ptr %3, i32 0, i32 0
  %5 = getelementptr inbounds nuw %struct.anon, ptr %4, i32 0, i32 0
  %6 = load ptr, ptr %5, align 8, !tbaa !83
  ret ptr %6
}

; Function Attrs: inlinehint nounwind uwtable
define internal ptr @ossl_list_txe_head(ptr noundef %0) #3 {
  %2 = alloca ptr, align 8
  store ptr %0, ptr %2, align 8, !tbaa !37
  %3 = load ptr, ptr %2, align 8, !tbaa !37
  %4 = getelementptr inbounds nuw %struct.ossl_list_st_txe, ptr %3, i32 0, i32 0
  %5 = load ptr, ptr %4, align 8, !tbaa !85
  ret ptr %5
}

; Function Attrs: nounwind uwtable
define internal void @qtx_cleanup_txl(ptr noundef %0) #0 {
  %2 = alloca ptr, align 8
  %3 = alloca ptr, align 8
  %4 = alloca ptr, align 8
  store ptr %0, ptr %2, align 8, !tbaa !37
  call void @llvm.lifetime.start.p0(i64 8, ptr %3) #8
  call void @llvm.lifetime.start.p0(i64 8, ptr %4) #8
  %5 = load ptr, ptr %2, align 8, !tbaa !37
  %6 = call ptr @ossl_list_txe_head(ptr noundef %5)
  store ptr %6, ptr %3, align 8, !tbaa !39
  br label %7

7:                                                ; preds = %14, %1
  %8 = load ptr, ptr %3, align 8, !tbaa !39
  %9 = icmp ne ptr %8, null
  br i1 %9, label %10, label %16

10:                                               ; preds = %7
  %11 = load ptr, ptr %3, align 8, !tbaa !39
  %12 = call ptr @ossl_list_txe_next(ptr noundef %11)
  store ptr %12, ptr %4, align 8, !tbaa !39
  %13 = load ptr, ptr %3, align 8, !tbaa !39
  call void @CRYPTO_free(ptr noundef %13, ptr noundef @.str, i32 noundef 140)
  br label %14

14:                                               ; preds = %10
  %15 = load ptr, ptr %4, align 8, !tbaa !39
  store ptr %15, ptr %3, align 8, !tbaa !39
  br label %7, !llvm.loop !40

16:                                               ; preds = %7
  call void @llvm.lifetime.end.p0(i64 8, ptr %4) #8
  call void @llvm.lifetime.end.p0(i64 8, ptr %3) #8
  ret void
}

; Function Attrs: nounwind uwtable
define void @ossl_qtx_free(ptr noundef %0) #0 {
  %2 = alloca ptr, align 8
  %3 = alloca i32, align 4
  %4 = alloca i32, align 4
  store ptr %0, ptr %2, align 8, !tbaa !14
  call void @llvm.lifetime.start.p0(i64 4, ptr %3) #8
  %5 = load ptr, ptr %2, align 8, !tbaa !14
  %6 = icmp eq ptr %5, null
  br i1 %6, label %7, label %8

7:                                                ; preds = %1
  store i32 1, ptr %4, align 4
  br label %28

8:                                                ; preds = %1
  %9 = load ptr, ptr %2, align 8, !tbaa !14
  %10 = getelementptr inbounds nuw %struct.ossl_qtx_st, ptr %9, i32 0, i32 8
  call void @qtx_cleanup_txl(ptr noundef %10)
  %11 = load ptr, ptr %2, align 8, !tbaa !14
  %12 = getelementptr inbounds nuw %struct.ossl_qtx_st, ptr %11, i32 0, i32 7
  call void @qtx_cleanup_txl(ptr noundef %12)
  %13 = load ptr, ptr %2, align 8, !tbaa !14
  %14 = getelementptr inbounds nuw %struct.ossl_qtx_st, ptr %13, i32 0, i32 11
  %15 = load ptr, ptr %14, align 8, !tbaa !32
  call void @CRYPTO_free(ptr noundef %15, ptr noundef @.str, i32 noundef 155)
  store i32 0, ptr %3, align 4, !tbaa !33
  br label %16

16:                                               ; preds = %23, %8
  %17 = load i32, ptr %3, align 4, !tbaa !33
  %18 = icmp ult i32 %17, 4
  br i1 %18, label %19, label %26

19:                                               ; preds = %16
  %20 = load ptr, ptr %2, align 8, !tbaa !14
  %21 = getelementptr inbounds nuw %struct.ossl_qtx_st, ptr %20, i32 0, i32 2
  %22 = load i32, ptr %3, align 4, !tbaa !33
  call void @ossl_qrl_enc_level_set_discard(ptr noundef %21, i32 noundef %22)
  br label %23

23:                                               ; preds = %19
  %24 = load i32, ptr %3, align 4, !tbaa !33
  %25 = add i32 %24, 1
  store i32 %25, ptr %3, align 4, !tbaa !33
  br label %16, !llvm.loop !35

26:                                               ; preds = %16
  %27 = load ptr, ptr %2, align 8, !tbaa !14
  call void @CRYPTO_free(ptr noundef %27, ptr noundef @.str, i32 noundef 161)
  store i32 0, ptr %4, align 4
  br label %28

28:                                               ; preds = %26, %7
  call void @llvm.lifetime.end.p0(i64 4, ptr %3) #8
  %29 = load i32, ptr %4, align 4
  switch i32 %29, label %31 [
    i32 0, label %30
    i32 1, label %30
  ]

30:                                               ; preds = %28, %28
  ret void

31:                                               ; preds = %28
  unreachable
}