; Function Attrs: nounwind uwtable
define void @ossl_qtx_free(ptr noundef %0) local_unnamed_addr #0 {
  %2 = icmp eq ptr %0, null
  br i1 %2, label %12, label %3

3:                                                ; preds = %1
  %4 = getelementptr inbounds nuw i8, ptr %0, i64 904
  %.val = load ptr, ptr %4, align 8, !tbaa !28
  %.not2.i = icmp eq ptr %.val, null
  br i1 %.not2.i, label %qtx_cleanup_txl.exit, label %.lr.ph.i

.lr.ph.i:                                         ; preds = %3, %.lr.ph.i
  %.03.i = phi ptr [ %.0.val.i, %.lr.ph.i ], [ %.val, %3 ]
  %.0.val.i = load ptr, ptr %.03.i, align 8, !tbaa !29
  tail call void @CRYPTO_free(ptr noundef nonnull %.03.i, ptr noundef nonnull @.str, i32 noundef 140) #11
  %.not.i = icmp eq ptr %.0.val.i, null
  br i1 %.not.i, label %qtx_cleanup_txl.exit, label %.lr.ph.i, !llvm.loop !32

qtx_cleanup_txl.exit:                             ; preds = %.lr.ph.i, %3
  %5 = getelementptr inbounds nuw i8, ptr %0, i64 880
  %.val9 = load ptr, ptr %5, align 8, !tbaa !28
  %.not2.i10 = icmp eq ptr %.val9, null
  br i1 %.not2.i10, label %qtx_cleanup_txl.exit15, label %.lr.ph.i11

.lr.ph.i11:                                       ; preds = %qtx_cleanup_txl.exit, %.lr.ph.i11
  %.03.i12 = phi ptr [ %.0.val.i13, %.lr.ph.i11 ], [ %.val9, %qtx_cleanup_txl.exit ]
  %.0.val.i13 = load ptr, ptr %.03.i12, align 8, !tbaa !29
  tail call void @CRYPTO_free(ptr noundef nonnull %.03.i12, ptr noundef nonnull @.str, i32 noundef 140) #11
  %.not.i14 = icmp eq ptr %.0.val.i13, null
  br i1 %.not.i14, label %qtx_cleanup_txl.exit15, label %.lr.ph.i11, !llvm.loop !32

qtx_cleanup_txl.exit15:                           ; preds = %.lr.ph.i11, %qtx_cleanup_txl.exit
  %6 = getelementptr inbounds nuw i8, ptr %0, i64 944
  %7 = load ptr, ptr %6, align 8, !tbaa !34
  tail call void @CRYPTO_free(ptr noundef %7, ptr noundef nonnull @.str, i32 noundef 155) #11
  %8 = getelementptr inbounds nuw i8, ptr %0, i64 16
  br label %9

9:                                                ; preds = %qtx_cleanup_txl.exit15, %9
  %.016 = phi i32 [ 0, %qtx_cleanup_txl.exit15 ], [ %10, %9 ]
  tail call void @ossl_qrl_enc_level_set_discard(ptr noundef nonnull %8, i32 noundef %.016) #11
  %10 = add nuw nsw i32 %.016, 1
  %exitcond.not = icmp eq i32 %10, 4
  br i1 %exitcond.not, label %11, label %9, !llvm.loop !35

11:                                               ; preds = %9
  tail call void @CRYPTO_free(ptr noundef nonnull %0, ptr noundef nonnull @.str, i32 noundef 161) #11
  br label %12

12:                                               ; preds = %1, %11
  ret void
}